target datalayout = "e-m:e-p270:32:32-p271:32:32-p272:64:64-i64:64-i128:128-f80:128-n8:16:32:64-S128"
target triple = "x86_64-pc-linux-gnu"

%"class.toku::keyrange" = type <{ %struct.__toku_dbt, %struct.__toku_dbt, ptr, ptr, i8, [7 x i8] }>
%struct.__toku_dbt = type { ptr, i64, i64, i32 }

; Function Attrs: mustprogress uwtable
define void @_ZN4toku8keyrange13set_both_keysEPK10__toku_dbt(ptr noundef nonnull align 8 dereferenceable(81) %0, ptr noundef %1) #0 align 2 {
  %3 = alloca ptr, align 8
  %4 = alloca ptr, align 8
  %5 = alloca %struct.__toku_dbt, align 8
  store ptr %0, ptr %3, align 8, !tbaa !4
  store ptr %1, ptr %4, align 8, !tbaa !9
  %6 = load ptr, ptr %3, align 8
  %7 = load ptr, ptr %4, align 8, !tbaa !9
  %8 = call noundef zeroext i1 @_Z20toku_dbt_is_infinitePK10__toku_dbt(ptr noundef %7)
  br i1 %8, label %9, label %14

9:                                                ; preds = %2
  %10 = load ptr, ptr %4, align 8, !tbaa !9
  %11 = getelementptr inbounds nuw %"class.toku::keyrange", ptr %6, i32 0, i32 2
  store ptr %10, ptr %11, align 8, !tbaa !11
  %12 = load ptr, ptr %4, align 8, !tbaa !9
  %13 = getelementptr inbounds nuw %"class.toku::keyrange", ptr %6, i32 0, i32 3
  store ptr %12, ptr %13, align 8, !tbaa !17
  br label %21

14:                                               ; preds = %2
  %15 = getelementptr inbounds nuw %"class.toku::keyrange", ptr %6, i32 0, i32 0
  %16 = load ptr, ptr %4, align 8, !tbaa !9
  %17 = call noundef ptr @_Z14toku_clone_dbtP10__toku_dbtRKS_(ptr noundef %15, ptr noundef nonnull align 8 dereferenceable(32) %16)
  %18 = getelementptr inbounds nuw %"class.toku::keyrange", ptr %6, i32 0, i32 1
  %19 = getelementptr inbounds nuw %"class.toku::keyrange", ptr %6, i32 0, i32 0
  call void @llvm.memcpy.p0.p0.i64(ptr align 8 %5, ptr align 8 %19, i64 32, i1 false), !tbaa.struct !19
  %20 = call noundef ptr @_Z16toku_copyref_dbtP10__toku_dbtS_(ptr noundef %18, ptr noundef byval(%struct.__toku_dbt) align 8 %5)
  br label %21

21:                                               ; preds = %14, %9
  %22 = getelementptr inbounds nuw %"class.toku::keyrange", ptr %6, i32 0, i32 4
  store i8 1, ptr %22, align 8, !tbaa !18
  ret void
}