; Function Attrs: mustprogress uwtable
define void @_ZN4toku8keyrange13set_both_keysEPK10__toku_dbt(ptr noundef nonnull align 8 dereferenceable(81) %0, ptr noundef %1) local_unnamed_addr #0 align 2 {
  %3 = tail call noundef zeroext i1 @_Z20toku_dbt_is_infinitePK10__toku_dbt(ptr noundef %1)
  br i1 %3, label %4, label %7

4:                                                ; preds = %2
  %5 = getelementptr inbounds nuw i8, ptr %0, i64 64
  store ptr %1, ptr %5, align 8, !tbaa !14
  %6 = getelementptr inbounds nuw i8, ptr %0, i64 72
  store ptr %1, ptr %6, align 8, !tbaa !15
  br label %11

7:                                                ; preds = %2
  %8 = tail call noundef ptr @_Z14toku_clone_dbtP10__toku_dbtRKS_(ptr noundef nonnull %0, ptr noundef nonnull align 8 dereferenceable(32) %1)
  %9 = getelementptr inbounds nuw i8, ptr %0, i64 32
  %10 = tail call noundef ptr @_Z16toku_copyref_dbtP10__toku_dbtS_(ptr noundef nonnull %9, ptr noundef nonnull byval(%struct.__toku_dbt) align 8 %0)
  br label %11

11:                                               ; preds = %7, %4
  %12 = getelementptr inbounds nuw i8, ptr %0, i64 80
  store i8 1, ptr %12, align 8, !tbaa !4
  ret void
}